target datalayout = "e-m:e-p270:32:32-p271:32:32-p272:64:64-i64:64-i128:128-f80:128-n8:16:32:64-S128"
target triple = "x86_64-pc-linux-gnu"

%struct.Jf_Cut_t_ = type { i64, float, i32, i32, i32, [10 x i32] }

; Function Attrs: nounwind uwtable
define float @Jf_CutCompareDelay(ptr noundef %0, ptr noundef %1) #0 {
  %3 = alloca float, align 4
  %4 = alloca ptr, align 8
  %5 = alloca ptr, align 8
  store ptr %0, ptr %4, align 8, !tbaa !136
  store ptr %1, ptr %5, align 8, !tbaa !136
  %6 = load ptr, ptr %4, align 8, !tbaa !136
  %7 = getelementptr inbounds nuw %struct.Jf_Cut_t_, ptr %6, i32 0, i32 2
  %8 = load i32, ptr %7, align 4, !tbaa !152
  %9 = load ptr, ptr %5, align 8, !tbaa !136
  %10 = getelementptr inbounds nuw %struct.Jf_Cut_t_, ptr %9, i32 0, i32 2
  %11 = load i32, ptr %10, align 4, !tbaa !152
  %12 = icmp ne i32 %8, %11
  br i1 %12, label %13, label %22

13:                                               ; preds = %2
  %14 = load ptr, ptr %4, align 8, !tbaa !136
  %15 = getelementptr inbounds nuw %struct.Jf_Cut_t_, ptr %14, i32 0, i32 2
  %16 = load i32, ptr %15, align 4, !tbaa !152
  %17 = load ptr, ptr %5, align 8, !tbaa !136
  %18 = getelementptr inbounds nuw %struct.Jf_Cut_t_, ptr %17, i32 0, i32 2
  %19 = load i32, ptr %18, align 4, !tbaa !152
  %20 = sub nsw i32 %16, %19
  %21 = sitofp i32 %20 to float
  store float %21, ptr %3, align 4
  br label %68

22:                                               ; preds = %2
  %23 = load ptr, ptr %4, align 8, !tbaa !136
  %24 = getelementptr inbounds nuw %struct.Jf_Cut_t_, ptr %23, i32 0, i32 5
  %25 = getelementptr inbounds [10 x i32], ptr %24, i64 0, i64 0
  %26 = load i32, ptr %25, align 8, !tbaa !7
  %27 = load ptr, ptr %5, align 8, !tbaa !136
  %28 = getelementptr inbounds nuw %struct.Jf_Cut_t_, ptr %27, i32 0, i32 5
  %29 = getelementptr inbounds [10 x i32], ptr %28, i64 0, i64 0
  %30 = load i32, ptr %29, align 8, !tbaa !7
  %31 = icmp ne i32 %26, %30
  br i1 %31, label %32, label %43

32:                                               ; preds = %22
  %33 = load ptr, ptr %4, align 8, !tbaa !136
  %34 = getelementptr inbounds nuw %struct.Jf_Cut_t_, ptr %33, i32 0, i32 5
  %35 = getelementptr inbounds [10 x i32], ptr %34, i64 0, i64 0
  %36 = load i32, ptr %35, align 8, !tbaa !7
  %37 = load ptr, ptr %5, align 8, !tbaa !136
  %38 = getelementptr inbounds nuw %struct.Jf_Cut_t_, ptr %37, i32 0, i32 5
  %39 = getelementptr inbounds [10 x i32], ptr %38, i64 0, i64 0
  %40 = load i32, ptr %39, align 8, !tbaa !7
  %41 = sub nsw i32 %36, %40
  %42 = sitofp i32 %41 to float
  store float %42, ptr %3, align 4
  br label %68

43:                                               ; preds = %22
  %44 = load ptr, ptr %4, align 8, !tbaa !136
  %45 = getelementptr inbounds nuw %struct.Jf_Cut_t_, ptr %44, i32 0, i32 1
  %46 = load float, ptr %45, align 8, !tbaa !153
  %47 = fpext float %46 to double
  %48 = load ptr, ptr %5, align 8, !tbaa !136
  %49 = getelementptr inbounds nuw %struct.Jf_Cut_t_, ptr %48, i32 0, i32 1
  %50 = load float, ptr %49, align 8, !tbaa !153
  %51 = fpext float %50 to double
  %52 = fsub double %51, 5.000000e-03
  %53 = fcmp olt double %47, %52
  br i1 %53, label %54, label %55

54:                                               ; preds = %43
  store float -1.000000e+00, ptr %3, align 4
  br label %68

55:                                               ; preds = %43
  %56 = load ptr, ptr %4, align 8, !tbaa !136
  %57 = getelementptr inbounds nuw %struct.Jf_Cut_t_, ptr %56, i32 0, i32 1
  %58 = load float, ptr %57, align 8, !tbaa !153
  %59 = fpext float %58 to double
  %60 = load ptr, ptr %5, align 8, !tbaa !136
  %61 = getelementptr inbounds nuw %struct.Jf_Cut_t_, ptr %60, i32 0, i32 1
  %62 = load float, ptr %61, align 8, !tbaa !153
  %63 = fpext float %62 to double
  %64 = fadd double %63, 5.000000e-03
  %65 = fcmp ogt double %59, %64
  br i1 %65, label %66, label %67

66:                                               ; preds = %55
  store float 1.000000e+00, ptr %3, align 4
  br label %68

67:                                               ; preds = %55
  store float 0.000000e+00, ptr %3, align 4
  br label %68

68:                                               ; preds = %67, %66, %54, %32, %13
  %69 = load float, ptr %3, align 4
  ret float %69
}