; Function Attrs: mustprogress nofree norecurse nosync nounwind willreturn memory(argmem: read) uwtable
define float @Jf_CutCompareDelay(ptr noundef readonly captures(none) %0, ptr noundef readonly captures(none) %1) #12 {
  %3 = getelementptr inbounds nuw i8, ptr %0, i64 12
  %4 = load i32, ptr %3, align 4, !tbaa !144
  %5 = getelementptr inbounds nuw i8, ptr %1, i64 12
  %6 = load i32, ptr %5, align 4, !tbaa !144
  %.not = icmp eq i32 %4, %6
  br i1 %.not, label %10, label %7

7:                                                ; preds = %2
  %8 = sub nsw i32 %4, %6
  %9 = sitofp i32 %8 to float
  br label %30

10:                                               ; preds = %2
  %11 = getelementptr inbounds nuw i8, ptr %0, i64 24
  %12 = load i32, ptr %11, align 8, !tbaa !14
  %13 = getelementptr inbounds nuw i8, ptr %1, i64 24
  %14 = load i32, ptr %13, align 8, !tbaa !14
  %.not18 = icmp eq i32 %12, %14
  br i1 %.not18, label %18, label %15

15:                                               ; preds = %10
  %16 = sub nsw i32 %12, %14
  %17 = sitofp i32 %16 to float
  br label %30

18:                                               ; preds = %10
  %19 = getelementptr inbounds nuw i8, ptr %0, i64 8
  %20 = load float, ptr %19, align 8, !tbaa !145
  %21 = fpext float %20 to double
  %22 = getelementptr inbounds nuw i8, ptr %1, i64 8
  %23 = load float, ptr %22, align 8, !tbaa !145
  %24 = fpext float %23 to double
  %25 = fadd double %24, -5.000000e-03
  %26 = fcmp ogt double %25, %21
  br i1 %26, label %30, label %27

27:                                               ; preds = %18
  %28 = fadd double %24, 5.000000e-03
  %29 = fcmp olt double %28, %21
  %. = select i1 %29, float 1.000000e+00, float 0.000000e+00
  br label %30

30:                                               ; preds = %27, %18, %15, %7
  %.0 = phi float [ %9, %7 ], [ %17, %15 ], [ -1.000000e+00, %18 ], [ %., %27 ]
  ret float %.0
}